; Function Attrs: mustprogress nounwind uwtable
define internal fastcc void @_ZN12_GLOBAL__N_111StmtPrinter16VisitDefaultStmtEPN5clang11DefaultStmtE(ptr noundef nonnull align 8 dereferenceable(80) %0, ptr noundef readonly captures(none) %1) unnamed_addr #0 align 2 {
  %3 = getelementptr inbounds nuw i8, ptr %0, i64 8
  %4 = load i32, ptr %3, align 8
  %5 = add i32 %4, -1
  %6 = icmp sgt i32 %5, 0
  br i1 %6, label %.lr.ph.i, label %_ZN12_GLOBAL__N_111StmtPrinter6IndentEi.exit

.lr.ph.i:                                         ; preds = %2, %_ZN4llvm11raw_ostreamlsEPKc.exit.i
  %.04.i = phi i32 [ %21, %_ZN4llvm11raw_ostreamlsEPKc.exit.i ], [ 0, %2 ]
  %7 = load ptr, ptr %0, align 8
  %8 = getelementptr inbounds nuw i8, ptr %7, i64 24
  %9 = load ptr, ptr %8, align 8
  %10 = getelementptr inbounds nuw i8, ptr %7, i64 32
  %11 = load ptr, ptr %10, align 8
  %12 = ptrtoint ptr %9 to i64
  %13 = ptrtoint ptr %11 to i64
  %14 = sub i64 %12, %13
  %15 = icmp ult i64 %14, 2
  br i1 %15, label %16, label %18

16:                                               ; preds = %.lr.ph.i
  %17 = tail call noundef nonnull align 8 dereferenceable(48) ptr @_ZN4llvm11raw_ostream5writeEPKcm(ptr noundef nonnull align 8 dereferenceable(48) %7, ptr noundef nonnull @.str.3, i64 noundef 2) #19
  br label %_ZN4llvm11raw_ostreamlsEPKc.exit.i

18:                                               ; preds = %.lr.ph.i
  store i16 8224, ptr %11, align 1
  %19 = load ptr, ptr %10, align 8
  %20 = getelementptr inbounds nuw i8, ptr %19, i64 2
  store ptr %20, ptr %10, align 8
  br label %_ZN4llvm11raw_ostreamlsEPKc.exit.i

_ZN4llvm11raw_ostreamlsEPKc.exit.i:               ; preds = %18, %16
  %21 = add nuw nsw i32 %.04.i, 1
  %exitcond.not.i = icmp eq i32 %21, %5
  br i1 %exitcond.not.i, label %_ZN12_GLOBAL__N_111StmtPrinter6IndentEi.exit, label %.lr.ph.i, !llvm.loop !16

_ZN12_GLOBAL__N_111StmtPrinter6IndentEi.exit:     ; preds = %_ZN4llvm11raw_ostreamlsEPKc.exit.i, %2
  %22 = load ptr, ptr %0, align 8
  %23 = getelementptr inbounds nuw i8, ptr %22, i64 24
  %24 = load ptr, ptr %23, align 8
  %25 = getelementptr inbounds nuw i8, ptr %22, i64 32
  %26 = load ptr, ptr %25, align 8
  %27 = ptrtoint ptr %24 to i64
  %28 = ptrtoint ptr %26 to i64
  %29 = sub i64 %27, %28
  %30 = icmp ult i64 %29, 8
  br i1 %30, label %31, label %33

31:                                               ; preds = %_ZN12_GLOBAL__N_111StmtPrinter6IndentEi.exit
  %32 = tail call noundef nonnull align 8 dereferenceable(48) ptr @_ZN4llvm11raw_ostream5writeEPKcm(ptr noundef nonnull align 8 dereferenceable(48) %22, ptr noundef nonnull @.str.229, i64 noundef 8) #19
  br label %_ZN4llvm11raw_ostreamlsEPKc.exit

33:                                               ; preds = %_ZN12_GLOBAL__N_111StmtPrinter6IndentEi.exit
  store i64 4212110802899330404, ptr %26, align 1
  %34 = load ptr, ptr %25, align 8
  %35 = getelementptr inbounds nuw i8, ptr %34, i64 8
  store ptr %35, ptr %25, align 8
  br label %_ZN4llvm11raw_ostreamlsEPKc.exit

_ZN4llvm11raw_ostreamlsEPKc.exit:                 ; preds = %31, %33
  %.0.i.i = phi ptr [ %32, %31 ], [ %22, %33 ]
  %36 = getelementptr inbounds nuw i8, ptr %0, i64 40
  %37 = tail call noundef ptr @_ZNKSt7__cxx1112basic_stringIcSt11char_traitsIcESaIcEE4dataEv(ptr noundef nonnull align 8 dereferenceable(32) %36) #19
  %38 = tail call noundef i64 @_ZNKSt7__cxx1112basic_stringIcSt11char_traitsIcESaIcEE6lengthEv(ptr noundef nonnull align 8 dereferenceable(32) %36) #19
  %39 = tail call noundef nonnull align 8 dereferenceable(48) ptr @_ZN4llvm11raw_ostream5writeEPKcm(ptr noundef nonnull align 8 dereferenceable(48) %.0.i.i, ptr noundef %37, i64 noundef %38) #19
  %40 = getelementptr inbounds nuw i8, ptr %1, i64 24
  %41 = load ptr, ptr %40, align 8
  tail call fastcc void @_ZN12_GLOBAL__N_111StmtPrinter9PrintStmtEPN5clang4StmtEi(ptr noundef nonnull align 8 dereferenceable(80) %0, ptr noundef %41, i32 noundef 0)
  ret void
}